; Function Attrs: mustprogress nofree norecurse nosync nounwind willreturn memory(read, inaccessiblemem: none) uwtable
define dso_local noundef zeroext i1 @_Z18is_variable_in_setRKSt6vectorIPK8VariableSaIS2_EES2_(ptr noundef nonnull readonly align 8 captures(none) dereferenceable(24) %0, ptr noundef readnone captures(address) %1) local_unnamed_addr #9 {
  %3 = getelementptr inbounds nuw i8, ptr %0, i64 8
  %4 = load ptr, ptr %3, align 8, !tbaa !33
  %5 = load ptr, ptr %0, align 8, !tbaa !36
  %.not = icmp eq ptr %4, %5
  br i1 %.not, label %._crit_edge, label %.lr.ph.preheader

.lr.ph.preheader:                                 ; preds = %2
  %6 = ptrtoint ptr %4 to i64
  %7 = ptrtoint ptr %5 to i64
  %8 = sub i64 %6, %7
  %9 = ashr exact i64 %8, 3
  %umax = tail call i64 @llvm.umax.i64(i64 %9, i64 1)
  br label %.lr.ph

.lr.ph:                                           ; preds = %.lr.ph, %.lr.ph.preheader
  %.07 = phi i64 [ 0, %.lr.ph.preheader ], [ %13, %.lr.ph ]
  %10 = getelementptr inbounds nuw ptr, ptr %5, i64 %.07
  %11 = load ptr, ptr %10, align 8, !tbaa !37
  %12 = icmp eq ptr %11, %1
  %13 = add nuw i64 %.07, 1
  %exitcond.not = icmp eq i64 %13, %umax
  %or.cond = select i1 %12, i1 true, i1 %exitcond.not
  br i1 %or.cond, label %._crit_edge, label %.lr.ph, !llvm.loop !87

._crit_edge:                                      ; preds = %.lr.ph, %2
  %.lcssa = phi i1 [ false, %2 ], [ %12, %.lr.ph ]
  ret i1 %.lcssa
}